; ModuleID = '14/765.c'
source_filename = "14/765.c"
target datalayout = "e-m:e-p270:32:32-p271:32:32-p272:64:64-i64:64-f80:128-n8:16:32:64-S128"
target triple = "x86_64-pc-linux-gnu"

@.str = private unnamed_addr constant [3 x i8] c"%d\00", align 1
@.str.1 = private unnamed_addr constant [7 x i8] c"%d %d\0A\00", align 1

; Function Attrs: noinline nounwind uwtable
define dso_local i32 @main(i32 %0, i8** %1) #0 {
  %3 = alloca i32, align 4
  %4 = alloca i32, align 4
  %5 = alloca i8**, align 8
  %6 = alloca i32, align 4
  %7 = alloca [99999 x i32], align 16
  %8 = alloca [2 x i32], align 4
  %9 = alloca i32, align 4
  %10 = alloca i32, align 4
  %11 = alloca i32, align 4
  %12 = alloca [99999 x i32], align 16
  %13 = alloca i32, align 4
  %14 = alloca i32, align 4
  %15 = alloca i32, align 4
  store i32 0, i32* %3, align 4
  store i32 %0, i32* %4, align 4
  store i8** %1, i8*** %5, align 8
  store i32 0, i32* %13, align 4
  %16 = call i32 (i8*, ...) @__isoc99_scanf(i8* getelementptr inbounds ([3 x i8], [3 x i8]* @.str, i64 0, i64 0), i32* %6)
  store i32 0, i32* %9, align 4
  br label %17

17:                                               ; preds = %46, %2
  %18 = load i32, i32* %9, align 4
  %19 = load i32, i32* %6, align 4
  %20 = icmp slt i32 %18, %19
  br i1 %20, label %21, label %49

21:                                               ; preds = %17
  %22 = load i32, i32* %9, align 4
  %23 = sext i32 %22 to i64
  %24 = getelementptr inbounds [99999 x i32], [99999 x i32]* %7, i64 0, i64 %23
  %25 = call i32 (i8*, ...) @__isoc99_scanf(i8* getelementptr inbounds ([3 x i8], [3 x i8]* @.str, i64 0, i64 0), i32* %24)
  store i32 0, i32* %10, align 4
  br label %26

26:                                               ; preds = %34, %21
  %27 = load i32, i32* %10, align 4
  %28 = icmp slt i32 %27, 2
  br i1 %28, label %29, label %37

29:                                               ; preds = %26
  %30 = load i32, i32* %10, align 4
  %31 = sext i32 %30 to i64
  %32 = getelementptr inbounds [2 x i32], [2 x i32]* %8, i64 0, i64 %31
  %33 = call i32 (i8*, ...) @__isoc99_scanf(i8* getelementptr inbounds ([3 x i8], [3 x i8]* @.str, i64 0, i64 0), i32* %32)
  br label %34

34:                                               ; preds = %29
  %35 = load i32, i32* %10, align 4
  %36 = add nsw i32 %35, 1
  store i32 %36, i32* %10, align 4
  br label %26

37:                                               ; preds = %26
  %38 = getelementptr inbounds [2 x i32], [2 x i32]* %8, i64 0, i64 0
  %39 = load i32, i32* %38, align 4
  %40 = getelementptr inbounds [2 x i32], [2 x i32]* %8, i64 0, i64 1
  %41 = load i32, i32* %40, align 4
  %42 = add nsw i32 %39, %41
  %43 = load i32, i32* %9, align 4
  %44 = sext i32 %43 to i64
  %45 = getelementptr inbounds [99999 x i32], [99999 x i32]* %12, i64 0, i64 %44
  store i32 %42, i32* %45, align 4
  br label %46

46:                                               ; preds = %37
  %47 = load i32, i32* %9, align 4
  %48 = add nsw i32 %47, 1
  store i32 %48, i32* %9, align 4
  br label %17

49:                                               ; preds = %17
  store i32 0, i32* %11, align 4
  br label %50

50:                                               ; preds = %84, %49
  %51 = load i32, i32* %11, align 4
  %52 = icmp slt i32 %51, 3
  br i1 %52, label %53, label %87

53:                                               ; preds = %50
  store i32 0, i32* %13, align 4
  store i32 0, i32* %14, align 4
  br label %54

54:                                               ; preds = %73, %53
  %55 = load i32, i32* %14, align 4
  %56 = load i32, i32* %6, align 4
  %57 = icmp slt i32 %55, %56
  br i1 %57, label %58, label %76

58:                                               ; preds = %54
  %59 = load i32, i32* %14, align 4
  %60 = sext i32 %59 to i64
  %61 = getelementptr inbounds [99999 x i32], [99999 x i32]* %12, i64 0, i64 %60
  %62 = load i32, i32* %61, align 4
  %63 = load i32, i32* %13, align 4
  %64 = icmp sgt i32 %62, %63
  br i1 %64, label %65, label %72

65:                                               ; preds = %58
  %66 = load i32, i32* %14, align 4
  %67 = sext i32 %66 to i64
  %68 = getelementptr inbounds [99999 x i32], [99999 x i32]* %12, i64 0, i64 %67
  %69 = load i32, i32* %68, align 4
  store i32 %69, i32* %13, align 4
  %70 = load i32, i32* %14, align 4
  %71 = add nsw i32 %70, 1
  store i32 %71, i32* %15, align 4
  br label %72

72:                                               ; preds = %65, %58
  br label %73

73:                                               ; preds = %72
  %74 = load i32, i32* %14, align 4
  %75 = add nsw i32 %74, 1
  store i32 %75, i32* %14, align 4
  br label %54

76:                                               ; preds = %54
  %77 = load i32, i32* %15, align 4
  %78 = load i32, i32* %13, align 4
  %79 = call i32 (i8*, ...) @printf(i8* getelementptr inbounds ([7 x i8], [7 x i8]* @.str.1, i64 0, i64 0), i32 %77, i32 %78)
  %80 = load i32, i32* %15, align 4
  %81 = sub nsw i32 %80, 1
  %82 = sext i32 %81 to i64
  %83 = getelementptr inbounds [99999 x i32], [99999 x i32]* %12, i64 0, i64 %82
  store i32 0, i32* %83, align 4
  br label %84

84:                                               ; preds = %76
  %85 = load i32, i32* %11, align 4
  %86 = add nsw i32 %85, 1
  store i32 %86, i32* %11, align 4
  br label %50

87:                                               ; preds = %50
  ret i32 0
}

declare dso_local i32 @__isoc99_scanf(i8*, ...) #1

declare dso_local i32 @printf(i8*, ...) #1


!llvm.module.flags = !{!0}
!llvm.ident = !{!1}

!0 = !{i32 1, !"wchar_size", i32 4}
!1 = !{!"clang version 10.0.0-4ubuntu1 "}
